target datalayout = "e-m:e-p270:32:32-p271:32:32-p272:64:64-i64:64-i128:128-f80:128-n8:16:32:64-S128"
target triple = "x86_64-pc-linux-gnu"

%struct.aom_codec_iface = type { ptr, i32, i64, ptr, ptr, ptr, %struct.aom_codec_dec_iface, %struct.aom_codec_enc_iface, ptr }
%struct.aom_codec_dec_iface = type { ptr, ptr, ptr, ptr, ptr }
%struct.aom_codec_enc_iface = type { i32, ptr, ptr, ptr, ptr, ptr, ptr }
%struct.aom_codec_ctx = type { ptr, ptr, i32, ptr, i64, %union.anon, ptr }
%union.anon = type { ptr }

; Function Attrs: nounwind uwtable
define internal ptr @get_alg_priv(ptr noundef %0) #0 {
  %2 = alloca ptr, align 8
  store ptr %0, ptr %2, align 8
  %3 = load ptr, ptr %2, align 8
  %4 = getelementptr inbounds nuw %struct.aom_codec_ctx, ptr %3, i32 0, i32 6
  %5 = load ptr, ptr %4, align 8
  ret ptr %5
}

; Function Attrs: nounwind uwtable
define hidden i32 @aom_codec_decode(ptr noundef %0, ptr noundef %1, i64 noundef %2, ptr noundef %3) #0 {
  %5 = alloca ptr, align 8
  %6 = alloca ptr, align 8
  %7 = alloca i64, align 8
  %8 = alloca ptr, align 8
  %9 = alloca i32, align 4
  store ptr %0, ptr %5, align 8
  store ptr %1, ptr %6, align 8
  store i64 %2, ptr %7, align 8
  store ptr %3, ptr %8, align 8
  %10 = load ptr, ptr %5, align 8
  %11 = icmp ne ptr %10, null
  br i1 %11, label %13, label %12

12:                                               ; preds = %4
  store i32 8, ptr %9, align 4
  br label %38

13:                                               ; preds = %4
  %14 = load ptr, ptr %5, align 8
  %15 = getelementptr inbounds nuw %struct.aom_codec_ctx, ptr %14, i32 0, i32 1
  %16 = load ptr, ptr %15, align 8
  %17 = icmp ne ptr %16, null
  br i1 %17, label %18, label %23

18:                                               ; preds = %13
  %19 = load ptr, ptr %5, align 8
  %20 = getelementptr inbounds nuw %struct.aom_codec_ctx, ptr %19, i32 0, i32 6
  %21 = load ptr, ptr %20, align 8
  %22 = icmp ne ptr %21, null
  br i1 %22, label %24, label %23

23:                                               ; preds = %18, %13
  store i32 1, ptr %9, align 4
  br label %37

24:                                               ; preds = %18
  %25 = load ptr, ptr %5, align 8
  %26 = getelementptr inbounds nuw %struct.aom_codec_ctx, ptr %25, i32 0, i32 1
  %27 = load ptr, ptr %26, align 8
  %28 = getelementptr inbounds nuw %struct.aom_codec_iface, ptr %27, i32 0, i32 6
  %29 = getelementptr inbounds nuw %struct.aom_codec_dec_iface, ptr %28, i32 0, i32 2
  %30 = load ptr, ptr %29, align 8
  %31 = load ptr, ptr %5, align 8
  %32 = call ptr @get_alg_priv(ptr noundef %31)
  %33 = load ptr, ptr %6, align 8
  %34 = load i64, ptr %7, align 8
  %35 = load ptr, ptr %8, align 8
  %36 = call i32 %30(ptr noundef %32, ptr noundef %33, i64 noundef %34, ptr noundef %35)
  store i32 %36, ptr %9, align 4
  br label %37

37:                                               ; preds = %24, %23
  br label %38

38:                                               ; preds = %37, %12
  %39 = load ptr, ptr %5, align 8
  %40 = icmp ne ptr %39, null
  br i1 %40, label %41, label %45

41:                                               ; preds = %38
  %42 = load i32, ptr %9, align 4
  %43 = load ptr, ptr %5, align 8
  %44 = getelementptr inbounds nuw %struct.aom_codec_ctx, ptr %43, i32 0, i32 2
  store i32 %42, ptr %44, align 8
  br label %47

45:                                               ; preds = %38
  %46 = load i32, ptr %9, align 4
  br label %47

47:                                               ; preds = %45, %41
  %48 = phi i32 [ %42, %41 ], [ %46, %45 ]
  ret i32 %48
}