; Function Attrs: nounwind uwtable
define hidden i32 @aom_codec_decode(ptr noundef %0, ptr noundef %1, i64 noundef %2, ptr noundef %3) local_unnamed_addr #0 {
  %.not = icmp eq ptr %0, null
  br i1 %.not, label %17, label %5

5:                                                ; preds = %4
  %6 = getelementptr inbounds nuw i8, ptr %0, i64 8
  %7 = load ptr, ptr %6, align 8
  %.not13 = icmp eq ptr %7, null
  br i1 %.not13, label %15, label %8

8:                                                ; preds = %5
  %9 = getelementptr inbounds nuw i8, ptr %0, i64 48
  %10 = load ptr, ptr %9, align 8
  %.not14 = icmp eq ptr %10, null
  br i1 %.not14, label %15, label %11

11:                                               ; preds = %8
  %12 = getelementptr inbounds i8, ptr %7, i64 64
  %13 = load ptr, ptr %12, align 8
  %14 = tail call i32 %13(ptr noundef nonnull %10, ptr noundef %1, i64 noundef %2, ptr noundef %3) #3
  br label %15

15:                                               ; preds = %5, %8, %11
  %.0.ph = phi i32 [ 1, %5 ], [ 1, %8 ], [ %14, %11 ]
  %16 = getelementptr inbounds nuw i8, ptr %0, i64 16
  store i32 %.0.ph, ptr %16, align 8
  br label %17

17:                                               ; preds = %4, %15
  %.017 = phi i32 [ %.0.ph, %15 ], [ 8, %4 ]
  ret i32 %.017
}